(lp0
(dp1
S'drug_name'
p2
VDOLOKIND AA TABLET
p3
sS'drug_company'
p4
VMankind Pharma Ltd
p5
sS'drug_quantity'
p6
V10 tablets
p7
sS'drug_price'
p8
VRs. 60.50
p9
sa(dp10
g2
VHEPASULFOL AA 12.5 MG/3 MG TABLET
p11
sg4
VFranco-Indian Pharmaceuticals Pvt Ltd
p12
sg6
V30 tablets
p13
sg8
VRs. 65.86
p14
sa(dp15
g2
VAALCETAMOL 1000MG INFUSION
p16
sg4
VAaltramed Healthcare Ltd
p17
sg6
V100 ML infusion
p18
sg8
VRs. 257.13
p19
sa(dp20
g2
VAAMIN A 5MG/50MG TABLET
p21
sg4
VTargof Pure Drugs Td
p22
sg6
V10 tablets
p23
sg8
VRs. 44.15
p24
sa(dp25
g2
VAARTHER P 100MG/500MG TABLET
p26
sg4
VRekvina Laboratories Ltd
p27
sg6
V10 tablets
p28
sg8
VRs. 33.30
p29
sa(dp30
g2
VAARTHER SP TABLET
p31
sg4
VRekvina Laboratories Ltd
p32
sg6
V10 tablets
p33
sg8
VRs. 54
p34
sa(dp35
g2
VAAMIN L 5 MG/5 MG TABLET
p36
sg4
VTargof Pure Drugs Td
p37
sg6
V10 tablets
p38
sg8
VRs. 49.81
p39
sa(dp40
g2
VAAMIN 5 MG TABLET
p41
sg4
VTargof Pure Drugs Td
p42
sg6
V10 tablets
p43
sg8
VRs. 29.43
p44
sa(dp45
g2
VAA HA SYRUP
p46
sg4
VLeo Pharmaceuticals
p47
sg6
V60 ML syrup
p48
sg8
VRs. 46.66
p49
sa(dp50
g2
VAA HA TABLET
p51
sg4
VLeo Pharmaceuticals
p52
sg6
V10 tablets
p53
sg8
VRs. 22.86
p54
sa(dp55
g2
VAARCLO AS TABLET
p56
sg4
VDial Pharmaceuticals Pvt Ltd
p57
sg6
V10 tablets
p58
sg8
VRs. 57.15
p59
sa(dp60
g2
VGLUCON D AAM PANNA POWDER
p61
sg4
VHeinz India Pvt Ltd
p62
sg6
V500 GM powder
p63
sg8
VRs. 135
p64
sa(dp65
g2
VJIVA AAM PACHAK CHURNA
p66
sg4
VJiva Ayurvedic Pharmacy Ltd
p67
sg6
V100 GM powder
p68
sg8
VRs. 155
p69
sa(dp70
g2
VAARTH OIL
p71
sg4
VPrayas Pharmaceuticals
p72
sg6
V30 ML oil
p73
sg8
VRs. 50
p74
sa(dp75
g2
VAAXIM 250MG TABLET
p76
sg4
VAarpik Pharmaceuticals Pvt Ltd
p77
sg6
V10 tablets
p78
sg8
VRs. 571.25
p79
sa(dp80
g2
VAAXIM 500MG TABLET
p81
sg4
VAarpik Pharmaceuticals Pvt Ltd
p82
sg6
V10 tablets
p83
sg8
VRs. 530
p84
sa(dp85
g2
VAACEF 1000 MG INJECTION
p86
sg4
VAlpic Biotech Ltd
p87
sg6
V1 injection
p88
sg8
VRs. 96
p89
sa(dp90
g2
VKAIRALI'S AAROGYA TEA
p91
sg4
VKairali Ayurvedic Products Pvt Ltd
p92
sg6
V100 GM granules
p93
sg8
VRs. 220
p94
sa(dp95
g2
VAALSERUM 7X MOTHER TINCTURE Q
p96
sg4
VDr Reckeweg & Co
p97
sg6
V20 ML Mother Tincture
p98
sg8
VRs. 200
p99
sa(dp100
g2
VAALSERUM DILUTION 30C
p101
sg4
VDr Reckeweg & Co
p102
sg6
V11 ML dilution
p103
sg8
VRs. 105
p104
sa(dp105
g2
VRIL AA CAPSULE
p106
sg4
VEast West Pharma
p107
sg6
V10 capsules
p108
sg8
VRs. 94.50
p109
sa(dp110
g2
VAALSERUM 7X MOTHER TINCTURE Q
p111
sg4
VAdel Pekana Germany
p112
sg6
V20 ML Mother Tincture
p113
sg8
VRs. 200
p114
sa(dp115
g2
VAALSERUM DILUTION 200C
p116
sg4
VAdel Pekana Germany
p117
sg6
V10 ML dilution
p118
sg8
VRs. 125
p119
sa(dp120
g2
VAALSERUM DILUTION 30C
p121
sg4
VAdel Pekana Germany
p122
sg6
V10 ML dilution
p123
sg8
VRs. 105
p124
sa(dp125
g2
VAALSERUM DILUTION 1M
p126
sg4
VAdel Pekana Germany
p127
sg6
V10 ML dilution
p128
sg8
VRs. 155
p129
sa(dp130
g2
VREX AAB-E-HAYAT
p131
sg4
VRex (U&A) Remedies Pvt. Ltd.
p132
sg6
V5 ML liquid
p133
sg8
VRs. 37
p134
sa(dp135
g2
VAALSERUM DILUTION 200C
p136
sg4
VDr Reckeweg & Co
p137
sg6
V11 ML dilution
p138
sg8
VRs. 125
p139
sa(dp140
g2
VAALSERUM DILUTION 1M
p141
sg4
VDr Reckeweg & Co
p142
sg6
V11 ML dilution
p143
sg8
VRs. 155
p144
sa(dp145
g2
VAAROVIT SYRUP
p146
sg4
VAarohi Pharmaceuticals
p147
sg6
V200 ML syrup
p148
sg8
VRs. 99
p149
sa(dp150
g2
VAAROVIT TABLET
p151
sg4
VAarohi Pharmaceuticals
p152
sg6
V10 tablets
p153
sg8
VRs. 63
p154
sa(dp155
g2
VPLANET AYURVEDA AAMVATANTAK CHURNA
p156
sg4
VPlanet Ayurveda
p157
sg6
V100 GM powder
p158
sg8
VRs. 240
p159
sa(dp160
g2
VRAPITHER AB 150 MG INJECTION
p161
sg4
VIpca Laboratories Ltd
p162
sg6
V2 ML injection
p163
sg8
VRs. 78
p164
sa(dp165
g2
VABZORB 1% W/V POWDER
p166
sg4
VSun Pharmaceutical Industries Ltd
p167
sg6
V100 GM powder
p168
sg8
VRs. 104
p169
sa(dp170
g2
VABSOLUT 3G CAPSULE
p171
sg4
VPharmed Ltd
p172
sg6
V10 capsules
p173
sg8
VRs. 149
p174
sa(dp175
g2
VABRAXANE 100 MG INJECTION
p176
sg4
VBiocon
p177
sg6
V1 injection
p178
sg8
VRs. 16640
p179
sa(dp180
g2
VAB PHYLLINE 100 MG CAPSULE
p181
sg4
VSun Pharmaceutical Industries Ltd
p182
sg6
V10 capsules
p183
sg8
VRs. 96
p184
sa(dp185
g2
VAB PHYLLINE SR 200MG TABLET
p186
sg4
VSun Pharmaceutical Industries Ltd
p187
sg6
V10 tablets
p188
sg8
VRs. 153
p189
sa(dp190
g2
VAB-FLO 100 MG CAPSULE
p191
sg4
VLupin Ltd
p192
sg6
V10 capsules
p193
sg8
VRs. 89
p194
sa(dp195
g2
VABHAY RAB 2.5 IU VACCINE
p196
sg4
VIndian Immunologicals Ltd
p197
sg6
V0.5 ML vaccine
p198
sg8
VRs. 330
p199
sa(dp200
g2
VABSOLUT WOMAN CAPSULE
p201
sg4
VPharmed Ltd
p202
sg6
V10 capsules
p203
sg8
VRs. 140
p204
sa(dp205
g2
VMONTEK AB TABLET
p206
sg4
VSun Pharmaceutical Industries Ltd
p207
sg6
V10 tablets
p208
sg8
VRs. 162
p209
sa(dp210
g2
VABOVE 5-D CAPSULE
p211
sg4
VPfizer Ltd
p212
sg6
V6 capsules
p213
sg8
VRs. 45.60
p214
sa(dp215
g2
VL MONTUS AB TABLET
p216
sg4
VFourrts India Laboratories Pvt Ltd
p217
sg6
V10 tablets
p218
sg8
VRs. 160
p219
sa(dp220
g2
VABSOLUT CAPSULE
p221
sg4
VPharmed Ltd
p222
sg6
V10 capsules
p223
sg8
VRs. 110
p224
sa(dp225
g2
VAB-FLO SR 200MG TABLET
p226
sg4
VLupin Ltd
p227
sg6
V10 tablets
p228
sg8
VRs. 148.50
p229
sa(dp230
g2
VHIMALAYA ABANA TABLET
p231
sg4
VHimalaya Drug Company
p232
sg6
V60 tablets
p233
sg8
VRs. 90
p234
sa(dp235
g2
VABSOLUT DM CAPSULE
p236
sg4
VPharmed Ltd
p237
sg6
V10 capsules
p238
sg8
VRs. 130
p239
sa(dp240
g2
VRAPITHER AB 75 MG INJECTION
p241
sg4
VIpca Laboratories Ltd
p242
sg6
V1 ML injection
p243
sg8
VRs. 56
p244
sa(dp245
g2
VABIWAYS 100 MG/600 MG TABLET
p246
sg4
VMankind Pharma Ltd
p247
sg6
V10 tablets
p248
sg8
VRs. 108.77
p249
sa(dp250
g2
VABORTAB 200MG TABLET
p251
sg4
VBharat Serums & Vaccines Ltd
p252
sg6
V1 tablet
p253
sg8
VRs. 325
p254
sa(dp255
g2
VAZUNATE AB 150MG INJECTION
p256
sg4
VMacleods Pharmaceuticals Pvt Ltd
p257
sg6
V2 ML injection
p258
sg8
VRs. 72.50
p259
sa(dp260
g2
VABCEF O 200MG/200MG TABLET
p261
sg4
VBestoChem Formulations India Ltd
p262
sg6
V10 tablets
p263
sg8
VRs. 114.48
p264
sa(dp265
g2
VABOCAL TABLET
p266
sg4
VAbbott India Ltd
p267
sg6
V15 tablets
p268
sg8
VRs. 90
p269
sa(dp270
g2
VAB PHYLLINE 100 MG SYRUP
p271
sg4
VSun Pharmaceutical Industries Ltd
p272
sg6
V100 ML syrup
p273
sg8
VRs. 107
p274
sa(dp275
g2
VABSOLUT SUSPENSION
p276
sg4
VPharmed Ltd
p277
sg6
V200 ML suspension
p278
sg8
VRs. 115
p279
sa(dp280
g2
VABCEF AZ TABLET
p281
sg4
VBestoChem Formulations India Ltd
p282
sg6
V10 tablets
p283
sg8
VRs. 205.80
p284
sa(dp285
g2
VABZ 200 MG SYRUP
p286
sg4
VIndoco Remedies Ltd
p287
sg6
V10 ML syrup
p288
sg8
VRs. 16.48
p289
sa(dp290
g2
VABAMUNE 300 MG TABLET
p291
sg4
VCipla Ltd
p292
sg6
V30 tablets
p293
sg8
VRs. 1378.44
p294
sa(dp295
g2
VABIRAPRO 250 MG TABLET
p296
sg4
VGlenmark Pharmaceuticals Ltd
p297
sg6
V120 tablets
p298
sg8
VRs. 105714
p299
sa(dp300
g2
VABDIFER CAPSULE
p301
sg4
VKinesis Pharmaceuticals Pvt Ltd
p302
sg6
V10 capsules
p303
sg8
VRs. 51.70
p304
sa(dp305
g2
VABHAY RIG 300 IU INJECTION
p306
sg4
VIndian Immunologicals Ltd
p307
sg6
V5 ML injection
p308
sg8
VRs. 600
p309
sa(dp310
g2
VABAMUNE L 600 MG/300 MG TABLET
p311
sg4
VCipla Ltd
p312
sg6
V30 tablets
p313
sg8
VRs. 2950
p314
sa(dp315
g2
VAB CEF 200MG/60MILLIONCELLS SYRUP
p316
sg4
VBestoChem Formulations India Ltd
p317
sg6
V30 ML syrup
p318
sg8
VRs. 45
p319
sa(dp320
g2
VABHAY TOX 0.5 ML INJECTION
p321
sg4
VIndian Immunologicals Ltd
p322
sg6
V0.5 ML injection
p323
sg8
VRs. 8.42
p324
sa(dp325
g2
VABCEF AZ KID TABLET
p326
sg4
VBestoChem Formulations India Ltd
p327
sg6
V10 tablets
p328
sg8
VRs. 95.23
p329
sa(dp330
g2
VSPIRODIN AB TABLET
p331
sg4
VKoye Pharmaceuticals Pvt Ltd
p332
sg6
V10 tablets
p333
sg8
VRs. 125
p334
sa(dp335
g2
VABCLOX 250MG/250MG CAPSULE
p336
sg4
VCentaur Pharmaceuticals Pvt Ltd
p337
sg6
V10 capsules
p338
sg8
VRs. 64.19
p339
sa(dp340
g2
VABSOLUT 3.6.9 CAPSULE
p341
sg4
VPharmed Ltd
p342
sg6
V10 capsules
p343
sg8
VRs. 159
p344
sa(dp345
g2
VABCIXIREL 10MG INJECTION
p346
sg4
VReliance Life Sciences
p347
sg6
V5 ML injection
p348
sg8
VRs. 8100
p349
sa(dp350
g2
VABCEF O DRY SYRUP
p351
sg4
VBestoChem Formulations India Ltd
p352
sg6
V30 ML dry syrup
p353
sg8
VRs. 45.80
p354
sa(dp355
g2
VABPRESS EYE DROP
p356
sg4
VEntod Pharmaceuticals Ltd
p357
sg6
V5 ML eye drop
p358
sg8
VRs. 186
p359
sa(dp360
g2
VABSOLUT DM 500 MG INJECTION
p361
sg4
VPharmed Ltd
p362
sg6
V1 ML injection
p363
sg8
VRs. 26.50
p364
sa(dp365
g2
VAB CEF 100MG TABLET
p366
sg4
VBestoChem Formulations India Ltd
p367
sg6
V10 tablets
p368
sg8
VRs. 73.03
p369
sa(dp370
g2
VNACFIL AB TABLET
p371
sg4
VFourrts India Laboratories Pvt Ltd
p372
sg6
V10 tablets
p373
sg8
VRs. 45
p374
sa(dp375
g2
VLEVOKAST AB 200 MG/10 MG TABLET
p376
sg4
VTTK Healthcare Ltd
p377
sg6
V10 tablets
p378
sg8
VRs. 140
p379
sa(dp380
g2
VABRETONE 250 MG TABLET
p381
sg4
VCadila Pharmaceuticals Ltd
p382
sg6
V120 tablets
p383
sg8
VRs. 95237.50
p384
sa(dp385
g2
VA BEC 300 MG TABLET
p386
sg4
VEmcure Pharmaceuticals Ltd
p387
sg6
V30 tablets
p388
sg8
VRs. 1378
p389
sa(dp390
g2
VABIONE 250MG TABLET
p391
sg4
VIntas Pharmaceuticals Ltd
p392
sg6
V120 tablets
p393
sg8
VRs. 99000
p394
sa(dp395
g2
VABITOL 4 MG TABLET
p396
sg4
VLincoln Pharmaceuticals Ltd
p397
sg6
V10 tablets
p398
sg8
VRs. 10.30
p399
sa(dp400
g2
VABSOLUT DM 500 MCG INJECTION
p401
sg4
VPharmed Ltd
p402
sg6
V4 ML injection
p403
sg8
VRs. 94.90
p404
sa(dp405
g2
VABCLOX CV 500MG/125MG TABLET
p406
sg4
VCentaur Pharmaceuticals Pvt Ltd
p407
sg6
V6 tablets
p408
sg8
VRs. 120.47
p409
sa(dp410
g2
VABITOL 2 MG SYRUP
p411
sg4
VLincoln Pharmaceuticals Ltd
p412
sg6
V200 ML syrup
p413
sg8
VRs. 59.90
p414
sa(dp415
g2
VABIXIM 200 MG TABLET
p416
sg4
VAbbott India Ltd
p417
sg6
V10 tablets
p418
sg8
VRs. 56.25
p419
sa(dp420
g2
VIVECOP AB 100MG/12MG TABLET
p421
sg4
VMenarini India Pvt Ltd
p422
sg6
V1 tablet
p423
sg8
VRs. 20
p424
sa(dp425
g2
VARTE PLUS AB 150MG INJECTION
p426
sg4
VZydus Cadila
p427
sg6
V2 ML injection
p428
sg8
VRs. 99
p429
sa(dp430
g2
VABDIFER LIQUID
p431
sg4
VKinesis Pharmaceuticals Pvt Ltd
p432
sg6
V200 ML liquid
p433
sg8
VRs. 90
p434
sa(dp435
g2
VABZ 400 MG TABLET
p436
sg4
VKare Health Specialities Pvt Ltd
p437
sg6
V1 tablet
p438
sg8
VRs. 10.81
p439
sa(dp440
g2
VABACTUM 250MG TABLET
p441
sg4
VAbaris Healthcare
p442
sg6
V6 tablets
p443
sg8
VRs. 165.72
p444
sa(dp445
g2
VABN CAPSULE
p446
sg4
VAquarius Health Care Pvt Ltd
p447
sg6
V10 capsules
p448
sg8
VRs. 35
p449
sa(dp450
g2
VAZUNATE AB 75 MG INJECTION
p451
sg4
VMacleods Pharmaceuticals Pvt Ltd
p452
sg6
V1 ML injection
p453
sg8
VRs. 52
p454
sa(dp455
g2
VABS CV TABLET
p456
sg4
VDowell Pharmaceutical
p457
sg6
V6 tablets
p458
sg8
VRs. 108
p459
sa(dp460
g2
VABIRATAS 250MG TABLET
p461
sg4
VIntas Pharmaceuticals Ltd
p462
sg6
V120 tablets
p463
sg8
VRs. 94285.70
p464
sa(dp465
g2
VABN SYRUP
p466
sg4
VAquarius Health Care Pvt Ltd
p467
sg6
V200 ML syrup
p468
sg8
VRs. 89
p469
sa(dp470
g2
VAB CEF DRY SYRUP
p471
sg4
VBestoChem Formulations India Ltd
p472
sg6
V100 ML dry syrup
p473
sg8
VRs. 96.81
p474
sa(dp475
g2
VAB CV 250MG/125MG TABLET
p476
sg4
VFDC Ltd
p477
sg6
V6 tablets
p478
sg8
VRs. 80
p479
sa(dp480
g2
VABACTUM 500MG TABLET
p481
sg4
VAbaris Healthcare
p482
sg6
V6 tablets
p483
sg8
VRs. 345
p484
sa(dp485
g2
VA BEC L 600MG/300MG TABLET
p486
sg4
VEmcure Pharmaceuticals Ltd
p487
sg6
V30 tablets
p488
sg8
VRs. 2950
p489
sa(dp490
g2
VABROFYL M 200MG/10MG TABLET
p491
sg4
VAlkem Laboratories Ltd
p492
sg6
V10 tablets
p493
sg8
VRs. 140.90
p494
sa(dp495
g2
VLASMA AB TABLET
p496
sg4
VApex Laboratories Pvt Ltd
p497
sg6
V10 tablets
p498
sg8
VRs. 135
p499
sa(dp500
g2
VABZ PLUS 400MG/6MG TABLET
p501
sg4
VIndoco Remedies Ltd
p502
sg6
V1 tablet
p503
sg8
VRs. 16.35
p504
sa(dp505
g2
VABETUS P SUSPENSION
p506
sg4
VAbbey Health Care Pvt Ltd
p507
sg6
V100 ML suspension
p508
sg8
VRs. 59.03
p509
sa(dp510
g2
VABTHER 150 MG INJECTION
p511
sg4
VAlkem Laboratories Ltd
p512
sg6
V2 ML injection
p513
sg8
VRs. 112
p514
sa(dp515
g2
VABDIFER DROP
p516
sg4
VKinesis Pharmaceuticals Pvt Ltd
p517
sg6
V15 ML drop
p518
sg8
VRs. 40
p519
sa(dp520
g2
VABIXIM O TABLET
p521
sg4
VAbbott India Ltd
p522
sg6
V10 tablets
p523
sg8
VRs. 68.75
p524
sa(dp525
g2
VABMAL 150MG INJECTION
p526
sg4
VAlkem Laboratories Ltd
p527
sg6
V2 ML injection
p528
sg8
VRs. 13.12
p529
sa(dp530
g2
VARTEMAK AB INJECTION
p531
sg4
VWin-Medicare Pvt Ltd
p532
sg6
V2 ML injection
p533
sg8
VRs. 15
p534
sa(dp535
g2
VABIWORM SUSPENSION
p536
sg4
VLeeford Healthcare Ltd
p537
sg6
V10 ML suspension
p538
sg8
VRs. 8.51
p539
sa(dp540
g2
VABD PLUS SYRUP
p541
sg4
VIntas Pharmaceuticals Ltd
p542
sg6
V10 ML syrup
p543
sg8
VRs. 32.40
p544
sa(dp545
g2
VABHAY TAG INJECTION
p546
sg4
VIndian Immunologicals Ltd
p547
sg6
V1 ML injection
p548
sg8
VRs. 17.50
p549
sa(dp550
g2
VABD 400 MG TABLET
p551
sg4
VIntas Pharmaceuticals Ltd
p552
sg6
V1 tablet
p553
sg8
VRs. 9.48
p554
sa(dp555
g2
VABETUS D SYRUP
p556
sg4
VAbbey Health Care Pvt Ltd
p557
sg6
V100 ML syrup
p558
sg8
VRs. 59.98
p559
sa(dp560
g2
VABD 200 MG SUSPENSION
p561
sg4
VIntas Pharmaceuticals Ltd
p562
sg6
V10 ML suspension
p563
sg8
VRs. 17.12
p564
sa(dp565
g2
VABETUS LS SYRUP
p566
sg4
VAbbey Health Care Pvt Ltd
p567
sg6
V100 ML syrup
p568
sg8
VRs. 69.42
p569
sa(dp570
g2
VABLU 50 MG TABLET
p571
sg4
VNeon Laboratories Ltd
p572
sg6
V10 tablets
p573
sg8
VRs. 137.50
p574
sa(dp575
g2
VABIOTIC CAPSULE
p576
sg4
VRND Laboratories Pvt Ltd
p577
sg6
V25 capsules
p578
sg8
VRs. 84.10
p579
sa(dp580
g2
VABIXIM 50MG DRY SYRUP
p581
sg4
VAbbott India Ltd
p582
sg6
V30 ML dry syrup
p583
sg8
VRs. 18.75
p584
sa(dp585
g2
VABDROT PLUS TABLET
p586
sg4
VApex Laboratories Pvt Ltd
p587
sg6
V10 tablets
p588
sg8
VRs. 59.98
p589
sa(dp590
g2
VABIXIM 100 MG TABLET
p591
sg4
VAbbott India Ltd
p592
sg6
V10 tablets
p593
sg8
VRs. 30
p594
sa(dp595
g2
VABDEC FORTE DROP
p596
sg4
VPfizer Ltd
p597
sg6
V15 ML drop
p598
sg8
VRs. 32.77
p599
sa(dp600
g2
VSUPRAL 2.5MG ABLET
p601
sg4
VA N Pharmacia
p602
sg6
V10 tablets
p603
sg8
VRs. 20.95
p604
sa(dp605
g2
VABZOLE 400MG TABLET
p606
sg4
VEuphoric Pharmaceuticals Pvt Ltd
p607
sg6
V2 tablets
p608
sg8
VRs. 16.42
p609
sa(dp610
g2
VABD PLUS TABLET
p611
sg4
VIntas Pharmaceuticals Ltd
p612
sg6
V1 tablet
p613
sg8
VRs. 26
p614
sa(dp615
g2
VABZORB B CREAM
p616
sg4
VSun Pharmaceutical Industries Ltd
p617
sg6
V15 GM cream
p618
sg8
VRs. 60
p619
sa(dp620
g2
VABZOLE 400MG SUSPENSION
p621
sg4
VEuphoric Pharmaceuticals Pvt Ltd
p622
sg6
V10 ML suspension
p623
sg8
VRs. 14.36
p624
sa(dp625
g2
VABEZ CAPSULE
p626
sg4
VAarpik Pharmaceuticals Pvt Ltd
p627
sg6
V10 capsules
p628
sg8
VRs. 41.50
p629
sa(dp630
g2
VA81 SKIN ABSCESS & BOILS DROP
p631
sg4
VAllen Homoeo & Herbal Products Ltd
p632
sg6
V30 ML drop
p633
sg8
VRs. 140
p634
sa(dp635
g2
VABROPHYLL DM TABLET
p636
sg4
VVivid Biotek Pvt Ltd
p637
sg6
V10 tablets
p638
sg8
VRs. 280
p639
sa(dp640
g2
VREX KHAMIRA ABRESHAM SHEERA UNNAB WALA
p641
sg4
VRex (U&A) Remedies Pvt. Ltd.
p642
sg6
V60 GM paste
p643
sg8
VRs. 154
p644
sa(dp645
g2
VEFFENAC AB TABLET
p646
sg4
VMacleods Pharmaceuticals Pvt Ltd
p647
sg6
V10 tablets
p648
sg8
VRs. 115
p649
sa(dp650
g2
VHAMDARD KHAMIRA ABRESHAM HAKIM ARSHAD WALA
p651
sg4
VHamdard Laboratories India
p652
sg6
V30 GM paste
p653
sg8
VRs. 125
p654
sa(dp655
g2
VKUPFFER TONE AB TABLET
p656
sg4
VTheia Healthcare
p657
sg6
V10 tablets
p658
sg8
VRs. 171
p659
sa(dp660
g2
VFOREVER ABSORBENT-C TABLET
p661
sg4
VForever Living
p662
sg6
V100 tablets
p663
sg8
VRs. 1238
p664
sa(dp665
g2
VA64 ABDOMINAL PAIN DROP
p666
sg4
VAllen Homoeo & Herbal Products Ltd
p667
sg6
V30 ML drop
p668
sg8
VRs. 125
p669
sa(dp670
g2
VABETCOLA TABLET
p671
sg4
VRadicool Pharmaceutical Pvt Ltd
p672
sg6
V30 tablets
p673
sg8
VRs. 925
p674
sa(dp675
g2
VABHAY M INJECTION
p676
sg4
VIndian Immunologicals Ltd
p677
sg6
V1 ML injection
p678
sg8
VRs. 50
p679
sa(dp680
g2
VBAIDYANATH ABHAYARISHTA
p681
sg4
VShree Baidyanath Ayurved Bhawan Pvt Ltd
p682
sg6
V450 ML liquid
p683
sg8
VRs. 115
p684
sa(dp685
g2
VABEN TABLET
p686
sg4
VLaborate Pharmaceuticals India Ltd
p687
sg6
V1 tablet
p688
sg8
VRs. 1.68
p689
sa(dp690
g2
VACNECHIO- AB TABLET
p691
sg4
VSenechio Pharma Pvt Ltd
p692
sg6
V10 tablets
p693
sg8
VRs. 185
p694
sa(dp695
g2
VABOVE TABLET
p696
sg4
VPfizer Ltd
p697
sg6
V7 tablets
p698
sg8
VRs. 37.36
p699
sa(dp700
g2
VCOVENT AB 100MG/3MG/30MG EXPECTORANT
p701
sg4
VZaneka Healthcare Pvt Ltd
p702
sg6
V100 ML expectorant
p703
sg8
VRs. 46.15
p704
sa(dp705
g2
VABCLOX CV 200MG/28.5MG DRY SYRUP
p706
sg4
VCentaur Pharmaceuticals Pvt Ltd
p707
sg6
V30 ML dry syrup
p708
sg8
VRs. 45.95
p709
sa(dp710
g2
VABPEX 100 MG CAPSULE
p711
sg4
VShilpex Pharmysis
p712
sg6
V10 capsules
p713
sg8
VRs. 79
p714
sa(dp715
g2
VABOLISH M TABLET
p716
sg4
VSapient Laboratories Pvt Ltd
p717
sg6
V10 tablets
p718
sg8
VRs. 80
p719
sa(dp720
g2
VFALCIDIUM AB 150MG INJECTION
p721
sg4
VNodysis Pharma Pvt Ltd
p722
sg6
V2 ML injection
p723
sg8
VRs. 84.76
p724
sa(dp725
g2
VABDEC DROP
p726
sg4
VPfizer Ltd
p727
sg6
V15 ML drop
p728
sg8
VRs. 29.86
p729
sa(dp730
g2
VABDEC SYRUP
p731
sg4
VPfizer Ltd
p732
sg6
V100 ML syrup
p733
sg8
VRs. 37
p734
sa(dp735
g2
VABEN SYRUP
p736
sg4
VLaborate Pharmaceuticals India Ltd
p737
sg6
V10 ML syrup
p738
sg8
VRs. 25.46
p739
sa(dp740
g2
VABITOL SYRUP
p741
sg4
VLincoln Pharmaceuticals Ltd
p742
sg6
V100 ML syrup
p743
sg8
VRs. 20.18
p744
sa(dp745
g2
VABHOPE 300 MG TABLET
p746
sg4
VAbbott India Ltd
p747
sg6
V60 tablets
p748
sg8
VRs. 2796.16
p749
sa(dp750
g2
VABSINTHIUM DILUTION 30C
p751
sg4
VAdel Pekana Germany
p752
sg6
V10 ML dilution
p753
sg8
VRs. 105
p754
sa(dp755
g2
VABIES CANADENSIS DILUTION 30C
p756
sg4
VAdel Pekana Germany
p757
sg6
V10 ML dilution
p758
sg8
VRs. 105
p759
sa(dp760
g2
VABIES NIGRA DILUTION 30C
p761
sg4
VAdel Pekana Germany
p762
sg6
V10 ML dilution
p763
sg8
VRs. 105
p764
sa(dp765
g2
VABSINTHIUM DILUTION 30C
p766
sg4
VDr Reckeweg & Co
p767
sg6
V11 ML dilution
p768
sg8
VRs. 105
p769
sa(dp770
g2
VABIES NIGRA DILUTION 30C
p771
sg4
VDr Reckeweg & Co
p772
sg6
V11 ML dilution
p773
sg8
VRs. 105
p774
sa(dp775
g2
VABIES CANADENSIS DILUTION 30C
p776
sg4
VDr Reckeweg & Co
p777
sg6
V11 ML dilution
p778
sg8
VRs. 105
p779
sa(dp780
g2
VABSINTHIUM MOTHER TINCTURE Q
p781
sg4
VAdel Pekana Germany
p782
sg6
V20 ML Mother Tincture
p783
sg8
VRs. 225
p784
sa(dp785
g2
VR38 AFFECTIONS OF THE ABDOMEN RIGHT SIDE DROP
p786
sg4
VDr Reckeweg & Co
p787
sg6
V22 ML drop
p788
sg8
VRs. 200
p789
sa(dp790
g2
VR39 AFFECTIONS OF THE ABDOMEN LEFT SIDE DROP
p791
sg4
VDr Reckeweg & Co
p792
sg6
V22 ML drop
p793
sg8
VRs. 200
p794
sa(dp795
g2
VABSINTHIUM MOTHER TINCTURE Q
p796
sg4
VDr Reckeweg & Co
p797
sg6
V20 ML Mother Tincture
p798
sg8
VRs. 230
p799
sa(dp800
g2
VABESTOR 10MG TABLET
p801
sg4
VGeneral Pharmaceuticals Pvt Ltd
p802
sg6
V10 tablets
p803
sg8
VRs. 62
p804
sa(dp805
g2
VABROTANUM MOTHER TINCTURE Q
p806
sg4
VDr Reckeweg & Co
p807
sg6
V20 ML Mother Tincture
p808
sg8
VRs. 230
p809
sa(dp810
g2
VABROTANUM DILUTION 30C
p811
sg4
VDr Reckeweg & Co
p812
sg6
V11 ML dilution
p813
sg8
VRs. 105
p814
sa(dp815
g2
VMOODS ABSOLUTE XTASY CONDOM
p816
sg4
VHLL Lifecare Ltd
p817
sg6
V12 condoms
p818
sg8
VRs. 100
p819
sa(dp820
g2
VABROTANUM MOTHER TINCTURE Q
p821
sg4
VAdel Pekana Germany
p822
sg6
V20 ML Mother Tincture
p823
sg8
VRs. 225
p824
sa(dp825
g2
VABROTANUM DILUTION 30C
p826
sg4
VAdel Pekana Germany
p827
sg6
V10 ML dilution
p828
sg8
VRs. 105
p829
sa(dp830
g2
VABROTANUM DILUTION 200C
p831
sg4
VAdel Pekana Germany
p832
sg6
V10 ML dilution
p833
sg8
VRs. 125
p834
sa(dp835
g2
VABROTANUM DILUTION 1M
p836
sg4
VAdel Pekana Germany
p837
sg6
V10 ML dilution
p838
sg8
VRs. 155
p839
sa(dp840
g2
VABROMA AUGUSTA MOTHER TINCTURE Q
p841
sg4
VBjain Pharmaceuticals Pvt Ltd
p842
sg6
V30 ML Mother Tincture
p843
sg8
VRs. 69
p844
sa(dp845
g2
VABDIFER XT TABLET
p846
sg4
VKinesis Pharmaceuticals Pvt Ltd
p847
sg6
V10 tablets
p848
sg8
VRs. 78
p849
sa(dp850
g2
VMONOKAST AB 200MG/10MG TABLET
p851
sg4
VTTK Healthcare Ltd
p852
sg6
V10 tablets
p853
sg8
VRs. 140
p854
sa(dp855
g2
VABIES CANADENSIS DILUTION 200C
p856
sg4
VDr Reckeweg & Co
p857
sg6
V11 ML dilution
p858
sg8
VRs. 125
p859
sa(dp860
g2
VABIES CANADENSIS DILUTION 1M
p861
sg4
VDr Reckeweg & Co
p862
sg6
V11 ML dilution
p863
sg8
VRs. 155
p864
sa(dp865
g2
VABIES NIGRA DILUTION 1M
p866
sg4
VDr Reckeweg & Co
p867
sg6
V11 ML dilution
p868
sg8
VRs. 155
p869
sa(dp870
g2
VABIES NIGRA DILUTION 200C
p871
sg4
VDr Reckeweg & Co
p872
sg6
V11 ML dilution
p873
sg8
VRs. 125
p874
sa(dp875
g2
VABSINTHIUM DILUTION 200C
p876
sg4
VDr Reckeweg & Co
p877
sg6
V11 ML dilution
p878
sg8
VRs. 125
p879
sa(dp880
g2
VABSINTHIUM DILUTION 1M
p881
sg4
VDr Reckeweg & Co
p882
sg6
V11 ML dilution
p883
sg8
VRs. 155
p884
sa(dp885
g2
VABROTANUM DILUTION 200C
p886
sg4
VDr Reckeweg & Co
p887
sg6
V11 ML dilution
p888
sg8
VRs. 125
p889
sa(dp890
g2
VABROTANUM DILUTION 1M
p891
sg4
VDr Reckeweg & Co
p892
sg6
V11 ML dilution
p893
sg8
VRs. 155
p894
sa(dp895
g2
VAB FLO N 100MG/600MG TABLET
p896
sg4
VLupin Ltd
p897
sg6
V10 tablets
p898
sg8
VRs. 135
p899
sa(dp900
g2
VABROMA AUGUSTA MOTHER TINCTURE Q
p901
sg4
VSBL Pvt Ltd
p902
sg6
V30 ML Mother Tincture
p903
sg8
VRs. 65
p904
sa(dp905
g2
VABRUS PRECATORIUS MOTHER TINCTURE Q
p906
sg4
VSBL Pvt Ltd
p907
sg6
V30 ML Mother Tincture
p908
sg8
VRs. 95
p909
sa(dp910
g2
VABELMOSCHUS MOTHER TINCTURE Q
p911
sg4
VSBL Pvt Ltd
p912
sg6
V30 ML Mother Tincture
p913
sg8
VRs. 95
p914
sa(dp915
g2
VABIES CANADENSIS MOTHER TINCTURE Q
p916
sg4
VSBL Pvt Ltd
p917
sg6
V30 ML Mother Tincture
p918
sg8
VRs. 180
p919
sa(dp920
g2
VABROTANUM MOTHER TINCTURE Q
p921
sg4
VSBL Pvt Ltd
p922
sg6
V30 ML Mother Tincture
p923
sg8
VRs. 165
p924
sa(dp925
g2
VABSINTHIUM MOTHER TINCTURE Q
p926
sg4
VSBL Pvt Ltd
p927
sg6
V30 ML Mother Tincture
p928
sg8
VRs. 70
p929
sa(dp930
g2
VREPL DR. ADVICE NO.13 ABSCESS DROP
p931
sg4
VRenovision Exports Pvt Ltd
p932
sg6
V30 ML drop
p933
sg8
VRs. 130
p934
sa(dp935
g2
VALFALFA SUPER ABCD TONIC
p936
sg4
VHASLAB
p937
sg6
V200 ML tonic
p938
sg8
VRs. 120
p939
sa(dp940
g2
VABACT 250MG TABLET
p941
sg4
VAbbott India Ltd
p942
sg6
V10 tablets
p943
sg8
VRs. 44.50
p944
sa(dp945
g2
VABACT 500MG TABLET
p946
sg4
VAbbott India Ltd
p947
sg6
V10 tablets
p948
sg8
VRs. 75
p949
sa(dp950
g2
VABSULE CAPSULE
p951
sg4
VAlliance Healthcare P Ltd
p952
sg6
V15 capsules
p953
sg8
VRs. 6.87
p954
sa(dp955
g2
VAB AT INJECTION
p956
sg4
VZee Laboratories
p957
sg6
V2 ML injection
p958
sg8
VRs. 69
p959
sa(dp960
g2
VABIDE 400MG DROPS
p961
sg4
VLaborate Pharmaceuticals India Ltd
p962
sg6
V10 ML drop
p963
sg8
VRs. 6.03
p964
sa(dp965
g2
VABIDE 400 MG SYRUP
p966
sg4
VLaborate Pharmaceuticals India Ltd
p967
sg6
V10 ML syrup
p968
sg8
VRs. 9.30
p969
sa(dp970
g2
VABPLEX SYRUP
p971
sg4
VAlliaance Biotech
p972
sg6
V200 ML syrup
p973
sg8
VRs. 22.50
p974
sa(dp975
g2
VABWAL 200MG SUSPENSION
p976
sg4
VWallace Pharmaceuticals Pvt Ltd
p977
sg6
V10 ML suspension
p978
sg8
VRs. 20.40
p979
sa(dp980
g2
VABWAL 400MG TABLET
p981
sg4
VWallace Pharmaceuticals Pvt Ltd
p982
sg6
V1 tablet
p983
sg8
VRs. 15.40
p984
sa(dp985
g2
VAB CEF CV 50MG/31.25MG TABLET
p986
sg4
VBestoChem Formulations India Ltd
p987
sg6
V10 tablets
p988
sg8
VRs. 65.20
p989
sa(dp990
g2
VABIES NIGRA DILUTION 200C
p991
sg4
VAdel Pekana Germany
p992
sg6
V10 ML dilution
p993
sg8
VRs. 125
p994
sa(dp995
g2
VABIES NIGRA DILUTION 1M
p996
sg4
VAdel Pekana Germany
p997
sg6
V10 ML dilution
p998
sg8
VRs. 155
p999
sa(dp1000
g2
VABSINTHIUM DILUTION 200C
p1001
sg4
VAdel Pekana Germany
p1002
sg6
V10 ML dilution
p1003
sg8
VRs. 125
p1004
sa(dp1005
g2
VABSINTHIUM DILUTION 1M
p1006
sg4
VAdel Pekana Germany
p1007
sg6
V10 ML dilution
p1008
sg8
VRs. 155
p1009
sa(dp1010
g2
VABIES CANADENSIS DILUTION 1M
p1011
sg4
VAdel Pekana Germany
p1012
sg6
V10 ML dilution
p1013
sg8
VRs. 155
p1014
sa(dp1015
g2
VABIES CANADENSIS DILUTION 200C
p1016
sg4
VAdel Pekana Germany
p1017
sg6
V10 ML dilution
p1018
sg8
VRs. 125
p1019
sa(dp1020
g2
VSUPPREX AB CAPSULE
p1021
sg4
VVintage Labs Pvt Ltd
p1022
sg6
V10 capsules
p1023
sg8
VRs. 75
p1024
sa(dp1025
g2
VVITARESP AB TABLET
p1026
sg4
VAlembic Pharmaceuticals Ltd
p1027
sg6
V10 tablets
p1028
sg8
VRs. 144
p1029
sa(dp1030
g2
VABUSTAT 40MG TABLET
p1031
sg4
VPsychotropics India Ltd
p1032
sg6
V10 tablets
p1033
sg8
VRs. 30.93
p1034
sa(dp1035
g2
VABENDOL 400MG TABLET
p1036
sg4
VLeeford Healthcare Ltd
p1037
sg6
V1 tablet
p1038
sg8
VRs. 10.18
p1039
sa(dp1040
g2
VABENDOL PLUS 12MG/400MG TABLET
p1041
sg4
VLeeford Healthcare Ltd
p1042
sg6
V1 tablet
p1043
sg8
VRs. 24
p1044
sa(dp1045
g2
VL MONTUS ABL 75MG/5MG/10MG TABLET
p1046
sg4
VFourrts India Laboratories Pvt Ltd
p1047
sg6
V10 tablets
p1048
sg8
VRs. 149
p1049
sa(dp1050
g2
VABEL 40MG TABLET
p1051
sg4
VLupin Ltd
p1052
sg6
V10 tablets
p1053
sg8
VRs. 139
p1054
sa(dp1055
g2
VN ABLE 625 MG TABLET
p1056
sg4
VWallace Pharmaceuticals Pvt Ltd
p1057
sg6
V10 tablets
p1058
sg8
VRs. 169.47
p1059
sa(dp1060
g2
VHEALTHVIT ABHARAK BHASM POWDER
p1061
sg4
VWest-Coast Pharmaceutical Works Ltd
p1062
sg6
V10 GM powder
p1063
sg8
VRs. 75
p1064
sa(dp1065
g2
VABATE 200MG TABLET SR
p1066
sg4
VGenesis Biotech Inc
p1067
sg6
V10 tablet sr
p1068
sg8
VRs. 46
p1069
sa(dp1070
g2
VABHOPE 50MG VIAL
p1071
sg4
VAbbott India Ltd
p1072
sg6
V1 vial
p1073
sg8
VRs. 4501.46
p1074
sa.